ccollections
Counter
p0
((dp1
S'133'
p2
I114532
sS'132'
p3
I157729
sS'131'
p4
I1163550
sS'130'
p5
I22603
sS'137'
p6
I35302
sS'136'
p7
I83463
sS'135'
p8
I234737
sS'134'
p9
I132202
sS'252'
p10
I399287
sS'253'
p11
I327797
sS'250'
p12
I873508
sS'138'
p13
I320390
sS'20'
p14
I216393
sS'21'
p15
I51988
sS'22'
p16
I11888
sS'2'
p17
I954230
sS'4'
p18
I360932
sS'6'
p19
I77403
sS'8'
p20
I44662
sS'464'
p21
I26143
sS'463'
p22
I7774
sS'462'
p23
I10910
sS'121'
p24
I525939
sS'122'
p25
I14382
sS'123'
p26
I13897
sS'124'
p27
I42254
sS'125'
p28
I356788
sS'126'
p29
I236701
sS'127'
p30
I117120
sS'128'
p31
I17210
sS'129'
p32
I44250
sS'11'
p33
I842617
sS'10'
p34
I439180
sS'13'
p35
I205935
sS'12'
p36
I509849
sS'15'
p37
I63980
sS'14'
p38
I497911
sS'17'
p39
I849720
sS'16'
p40
I323682
sS'19'
p41
I64321
sS'18'
p42
I448738
sS'150'
p43
I21959
sS'139'
p44
I211155
sS'251'
p45
I120107
sS'1'
p46
I3669386
sS'3'
p47
I606969
sS'5'
p48
I42495
sS'7'
p49
I81477
sS'9'
p50
I347261
sS'360'
p51
I11625
sS'146'
p52
I101720
sS'147'
p53
I37639
sS'142'
p54
I31609
sS'143'
p55
I38722
sS'140'
p56
I143026
sS'141'
p57
I61578
sS'148'
p58
I30184
sS'149'
p59
I17893
sS'357'
p60
I24829
sS'356'
p61
I95403
sS'355'
p62
I131522
sS'354'
p63
I130493
sS'359'
p64
I12635
sS'358'
p65
I66781
stp66
Rp67
.