ccollections
Counter
p0
((dp1
S'133'
p2
I164905
sS'132'
p3
I246471
sS'131'
p4
I1907563
sS'130'
p5
I73519
sS'137'
p6
I67158
sS'136'
p7
I183889
sS'135'
p8
I320896
sS'134'
p9
I225871
sS'252'
p10
I690950
sS'253'
p11
I887785
sS'250'
p12
I1897337
sS'251'
p13
I276629
sS'20'
p14
I307776
sS'21'
p15
I94400
sS'22'
p16
I67177
sS'2'
p17
I1939828
sS'4'
p18
I845294
sS'6'
p19
I256441
sS'8'
p20
I59079
sS'464'
p21
I58324
sS'463'
p22
I29467
sS'462'
p23
I116414
sS'121'
p24
I1080549
sS'122'
p25
I60007
sS'123'
p26
I34404
sS'124'
p27
I110662
sS'125'
p28
I1047428
sS'126'
p29
I691114
sS'127'
p30
I348498
sS'128'
p31
I40997
sS'129'
p32
I138318
sS'11'
p33
I1789419
sS'10'
p34
I684403
sS'13'
p35
I358470
sS'12'
p36
I972059
sS'15'
p37
I96387
sS'14'
p38
I1195573
sS'17'
p39
I1458175
sS'16'
p40
I662214
sS'19'
p41
I159426
sS'18'
p42
I700390
sS'150'
p43
I69665
sS'139'
p44
I340207
sS'138'
p45
I513011
sS'1'
p46
I6627123
sS'3'
p47
I1332394
sS'5'
p48
I66972
sS'7'
p49
I104608
sS'9'
p50
I607434
sS'360'
p51
I27647
sS'146'
p52
I389901
sS'147'
p53
I137515
sS'142'
p54
I78139
sS'143'
p55
I90897
sS'140'
p56
I324076
sS'141'
p57
I130636
sS'148'
p58
I107232
sS'149'
p59
I88710
sS'357'
p60
I95000
sS'356'
p61
I222019
sS'355'
p62
I192051
sS'354'
p63
I216980
sS'359'
p64
I54308
sS'358'
p65
I62910
stp66
Rp67
.