ccollections
Counter
p0
((dp1
S'133'
p2
I133328
sS'132'
p3
I198423
sS'131'
p4
I1544917
sS'130'
p5
I50570
sS'137'
p6
I55025
sS'136'
p7
I153302
sS'135'
p8
I256051
sS'134'
p9
I176437
sS'252'
p10
I592858
sS'253'
p11
I747047
sS'139'
p12
I270447
sS'251'
p13
I233392
sS'20'
p14
I257159
sS'21'
p15
I78500
sS'22'
p16
I45971
sS'2'
p17
I1536366
sS'4'
p18
I636810
sS'6'
p19
I210994
sS'8'
p20
I48328
sS'464'
p21
I44992
sS'463'
p22
I23740
sS'462'
p23
I96123
sS'121'
p24
I891748
sS'122'
p25
I46778
sS'123'
p26
I28504
sS'124'
p27
I91748
sS'125'
p28
I844763
sS'126'
p29
I594950
sS'127'
p30
I244520
sS'128'
p31
I28962
sS'129'
p32
I95888
sS'11'
p33
I1455383
sS'10'
p34
I598029
sS'13'
p35
I295702
sS'12'
p36
I800068
sS'15'
p37
I79675
sS'14'
p38
I966794
sS'17'
p39
I1228916
sS'16'
p40
I521308
sS'19'
p41
I126003
sS'18'
p42
I560815
sS'150'
p43
I61262
sS'250'
p44
I1607959
sS'138'
p45
I427177
sS'1'
p46
I5427730
sS'3'
p47
I1036157
sS'5'
p48
I61706
sS'7'
p49
I78319
sS'9'
p50
I500209
sS'360'
p51
I20073
sS'146'
p52
I302562
sS'147'
p53
I103497
sS'142'
p54
I62301
sS'143'
p55
I71193
sS'140'
p56
I264304
sS'141'
p57
I109597
sS'148'
p58
I80926
sS'149'
p59
I67606
sS'357'
p60
I75941
sS'356'
p61
I200216
sS'355'
p62
I170620
sS'354'
p63
I183857
sS'359'
p64
I55323
sS'358'
p65
I54805
stp66
Rp67
.