ccollections
Counter
p0
((dp1
S'133'
p2
I46519
sS'132'
p3
I70840
sS'131'
p4
I526043
sS'130'
p5
I19273
sS'137'
p6
I18294
sS'136'
p7
I52032
sS'135'
p8
I91759
sS'134'
p9
I61673
sS'252'
p10
I197769
sS'253'
p11
I235352
sS'250'
p12
I517706
sS'251'
p13
I72719
sS'20'
p14
I86773
sS'21'
p15
I28167
sS'22'
p16
I25203
sS'2'
p17
I514098
sS'4'
p18
I211630
sS'6'
p19
I69838
sS'8'
p20
I17018
sS'464'
p21
I16069
sS'463'
p22
I8139
sS'462'
p23
I28689
sS'121'
p24
I283762
sS'122'
p25
I10689
sS'123'
p26
I8036
sS'124'
p27
I27955
sS'125'
p28
I276821
sS'126'
p29
I172455
sS'127'
p30
I102310
sS'128'
p31
I10443
sS'129'
p32
I46433
sS'11'
p33
I482792
sS'10'
p34
I204856
sS'13'
p35
I97864
sS'12'
p36
I266588
sS'15'
p37
I28208
sS'14'
p38
I319447
sS'17'
p39
I410148
sS'16'
p40
I177591
sS'19'
p41
I45270
sS'18'
p42
I185841
sS'150'
p43
I17725
sS'139'
p44
I94853
sS'138'
p45
I134821
sS'1'
p46
I1824213
sS'3'
p47
I341433
sS'5'
p48
I18255
sS'7'
p49
I24692
sS'9'
p50
I172665
sS'360'
p51
I9944
sS'146'
p52
I100800
sS'147'
p53
I36852
sS'142'
p54
I23062
sS'143'
p55
I23941
sS'140'
p56
I87751
sS'141'
p57
I35001
sS'148'
p58
I27067
sS'149'
p59
I23225
sS'357'
p60
I19240
sS'356'
p61
I63262
sS'355'
p62
I56270
sS'354'
p63
I61249
sS'359'
p64
I16682
sS'358'
p65
I18457
stp66
Rp67
.